Certificate:
    Data:
        Version: 3 (0x2)
        Serial Number:
            7a:9c:45:6d:c1:3a:da:3d:ad:c0:6e:5d:64:2b:6b:f4:04:cb:c7:4f
        Signature Algorithm: ED25519
        Issuer: C=IN, ST=Kar, L=En, O=HTIPL, OU=VPP, CN=root
        Validity
            Not Before: Nov 26 14:10:48 2019 GMT
            Not After : Nov 16 14:10:48 2059 GMT
        Subject: C=IN, ST=Kar, O=HTIPL, OU=VPP, CN=serv
        Subject Public Key Info:
            Public Key Algorithm: ED25519
                ED25519 Public-Key:
                pub:
                    7b:5a:b0:ca:21:3f:2a:3b:b9:11:c7:fd:66:a9:d5:
                    5e:72:92:ef:bf:12:ca:18:d3:33:4d:62:3d:9a:3c:
                    cf:e4
        X509v3 extensions:
            X509v3 Basic Constraints: 
                CA:FALSE
            Netscape Comment: 
                OpenSSL Generated Certificate
            X509v3 Subject Key Identifier: 
                6E:07:AE:51:7C:3C:EA:92:C0:CD:F7:43:04:FE:2A:0A:6D:4F:B2:33
            X509v3 Authority Key Identifier: 
                keyid:51:4D:62:69:C1:43:FE:DE:1F:53:77:0C:92:B1:22:A0:E8:72:DD:6A

    Signature Algorithm: ED25519
         a0:65:ca:12:42:33:f4:91:29:27:9d:07:2d:8f:dd:6c:ab:d9:
         9e:3e:9d:ac:db:42:7e:ad:49:87:ab:9c:ec:4b:d6:b2:d7:62:
         d7:44:1c:9c:ad:0b:c5:35:59:1d:93:83:f5:f2:ba:f2:53:60:
         44:a6:27:4f:02:b3:0f:d7:e1:06
-----BEGIN CERTIFICATE-----
MIIB3DCCAY6gAwIBAgIUepxFbcE62j2twG5dZCtr9ATLx08wBQYDK2VwMFUxCzAJ
BgNVBAYTAklOMQwwCgYDVQQIDANLYXIxCzAJBgNVBAcMAkVuMQ4wDAYDVQQKDAVI
VElQTDEMMAoGA1UECwwDVlBQMQ0wCwYDVQQDDARyb290MCAXDTE5MTEyNjE0MTA0
OFoYDzIwNTkxMTE2MTQxMDQ4WjBIMQswCQYDVQQGEwJJTjEMMAoGA1UECAwDS2Fy
MQ4wDAYDVQQKDAVIVElQTDEMMAoGA1UECwwDVlBQMQ0wCwYDVQQDDARzZXJ2MCow
BQYDK2VwAyEAe1qwyiE/Kju5Ecf9ZqnVXnKS778SyhjTM01iPZo8z+SjezB5MAkG
A1UdEwQCMAAwLAYJYIZIAYb4QgENBB8WHU9wZW5TU0wgR2VuZXJhdGVkIENlcnRp
ZmljYXRlMB0GA1UdDgQWBBRuB65RfDzqksDN90ME/ioKbU+yMzAfBgNVHSMEGDAW
gBRRTWJpwUP+3h9TdwySsSKg6HLdajAFBgMrZXADQQCgZcoSQjP0kSknnQctj91s
q9mePp2s20J+rUmHq5zsS9ay12LXRBycrQvFNVkdk4P18rryU2BEpidPArMP1+EG
-----END CERTIFICATE-----
